target datalayout = "e-m:e-p270:32:32-p271:32:32-p272:64:64-i64:64-i128:128-f80:128-n8:16:32:64-S128"
target triple = "x86_64-pc-linux-gnu"

%"struct.duckdb_zstd::ZSTD_customMem" = type { ptr, ptr, ptr }
%"struct.duckdb_zstd::ZSTD_DCtx_s" = type { ptr, ptr, ptr, ptr, %"struct.duckdb_zstd::ZSTD_entropyDTables_t", [640 x i32], ptr, ptr, ptr, ptr, i64, %"struct.duckdb_zstd::ZSTD_frameHeader", i64, i64, i32, i32, i32, i32, %"struct.duckdb_zstd::XXH64_state_s", i64, i32, i32, i32, ptr, %"struct.duckdb_zstd::ZSTD_customMem", i64, i64, i64, i32, i32, ptr, ptr, i32, i32, i32, ptr, i32, i32, i32, i32, ptr, i64, i64, i64, ptr, i64, i64, i64, i64, i32, i32, i32, %"struct.duckdb_zstd::ZSTD_outBuffer_s", ptr, ptr, i32, [65568 x i8], [18 x i8], i64, i64 }
%"struct.duckdb_zstd::ZSTD_entropyDTables_t" = type { [513 x %"struct.duckdb_zstd::ZSTD_seqSymbol"], [257 x %"struct.duckdb_zstd::ZSTD_seqSymbol"], [513 x %"struct.duckdb_zstd::ZSTD_seqSymbol"], [4097 x i32], [3 x i32], [157 x i32] }
%"struct.duckdb_zstd::ZSTD_seqSymbol" = type { i16, i8, i8, i32 }
%"struct.duckdb_zstd::ZSTD_frameHeader" = type { i64, i64, i32, i32, i32, i32, i32, i32, i32 }
%"struct.duckdb_zstd::XXH64_state_s" = type { i64, i64, i64, i64, i64, [4 x i64], i32, [2 x i32] }
%"struct.duckdb_zstd::ZSTD_outBuffer_s" = type { ptr, i64, i64 }
%"struct.duckdb_zstd::ZSTD_cpuid_t" = type { i32, i32, i32, i32 }

; Function Attrs: inlinehint mustprogress nounwind uwtable
define internal noundef i32 @_ZN11duckdb_zstdL15ZSTD_cpuid_bmi2ENS_12ZSTD_cpuid_tE(i64 %0, i64 %1) #7 {
  %3 = alloca %"struct.duckdb_zstd::ZSTD_cpuid_t", align 4
  %4 = getelementptr inbounds nuw { i64, i64 }, ptr %3, i32 0, i32 0
  store i64 %0, ptr %4, align 4
  %5 = getelementptr inbounds nuw { i64, i64 }, ptr %3, i32 0, i32 1
  store i64 %1, ptr %5, align 4
  %6 = getelementptr inbounds nuw %"struct.duckdb_zstd::ZSTD_cpuid_t", ptr %3, i32 0, i32 2
  %7 = load i32, ptr %6, align 4, !tbaa !171
  %8 = and i32 %7, 256
  %9 = icmp ne i32 %8, 0
  %10 = zext i1 %9 to i32
  ret i32 %10
}

; Function Attrs: inlinehint mustprogress nounwind uwtable
define internal noundef i32 @_ZN11duckdb_zstdL15ZSTD_cpuid_bmi1ENS_12ZSTD_cpuid_tE(i64 %0, i64 %1) #7 {
  %3 = alloca %"struct.duckdb_zstd::ZSTD_cpuid_t", align 4
  %4 = getelementptr inbounds nuw { i64, i64 }, ptr %3, i32 0, i32 0
  store i64 %0, ptr %4, align 4
  %5 = getelementptr inbounds nuw { i64, i64 }, ptr %3, i32 0, i32 1
  store i64 %1, ptr %5, align 4
  %6 = getelementptr inbounds nuw %"struct.duckdb_zstd::ZSTD_cpuid_t", ptr %3, i32 0, i32 2
  %7 = load i32, ptr %6, align 4, !tbaa !171
  %8 = and i32 %7, 8
  %9 = icmp ne i32 %8, 0
  %10 = zext i1 %9 to i32
  ret i32 %10
}

; Function Attrs: inlinehint mustprogress nounwind uwtable
define internal { i64, i64 } @_ZN11duckdb_zstdL10ZSTD_cpuidEv() #7 {
  %1 = alloca %"struct.duckdb_zstd::ZSTD_cpuid_t", align 4
  %2 = alloca i32, align 4
  %3 = alloca i32, align 4
  %4 = alloca i32, align 4
  %5 = alloca i32, align 4
  %6 = alloca i32, align 4
  %7 = alloca i32, align 4
  %8 = alloca i32, align 4
  call void @llvm.lifetime.start.p0(i64 4, ptr %2) #12
  store i32 0, ptr %2, align 4, !tbaa !54
  call void @llvm.lifetime.start.p0(i64 4, ptr %3) #12
  store i32 0, ptr %3, align 4, !tbaa !54
  call void @llvm.lifetime.start.p0(i64 4, ptr %4) #12
  store i32 0, ptr %4, align 4, !tbaa !54
  call void @llvm.lifetime.start.p0(i64 4, ptr %5) #12
  store i32 0, ptr %5, align 4, !tbaa !54
  call void @llvm.lifetime.start.p0(i64 4, ptr %6) #12
  %9 = call i32 asm "cpuid", "={ax},{ax},~{ebx},~{ecx},~{edx},~{dirflag},~{fpsr},~{flags}"(i32 0) #14, !srcloc !165
  store i32 %9, ptr %6, align 4, !tbaa !54
  %10 = load i32, ptr %6, align 4, !tbaa !54
  %11 = icmp uge i32 %10, 1
  br i1 %11, label %12, label %17

12:                                               ; preds = %0
  call void @llvm.lifetime.start.p0(i64 4, ptr %7) #12
  %13 = call { i32, i32, i32 } asm "cpuid", "={ax},={cx},={dx},{ax},~{ebx},~{dirflag},~{fpsr},~{flags}"(i32 1) #14, !srcloc !166
  %14 = extractvalue { i32, i32, i32 } %13, 0
  %15 = extractvalue { i32, i32, i32 } %13, 1
  %16 = extractvalue { i32, i32, i32 } %13, 2
  store i32 %14, ptr %7, align 4, !tbaa !54
  store i32 %15, ptr %2, align 4, !tbaa !54
  store i32 %16, ptr %3, align 4, !tbaa !54
  call void @llvm.lifetime.end.p0(i64 4, ptr %7) #12
  br label %17

17:                                               ; preds = %12, %0
  %18 = load i32, ptr %6, align 4, !tbaa !54
  %19 = icmp uge i32 %18, 7
  br i1 %19, label %20, label %25

20:                                               ; preds = %17
  call void @llvm.lifetime.start.p0(i64 4, ptr %8) #12
  %21 = call { i32, i32, i32 } asm "cpuid", "={ax},={bx},={cx},{ax},{cx},~{edx},~{dirflag},~{fpsr},~{flags}"(i32 7, i32 0) #14, !srcloc !167
  %22 = extractvalue { i32, i32, i32 } %21, 0
  %23 = extractvalue { i32, i32, i32 } %21, 1
  %24 = extractvalue { i32, i32, i32 } %21, 2
  store i32 %22, ptr %8, align 4, !tbaa !54
  store i32 %23, ptr %4, align 4, !tbaa !54
  store i32 %24, ptr %5, align 4, !tbaa !54
  call void @llvm.lifetime.end.p0(i64 4, ptr %8) #12
  br label %25

25:                                               ; preds = %20, %17
  %26 = load i32, ptr %2, align 4, !tbaa !54
  %27 = getelementptr inbounds nuw %"struct.duckdb_zstd::ZSTD_cpuid_t", ptr %1, i32 0, i32 0
  store i32 %26, ptr %27, align 4, !tbaa !168
  %28 = load i32, ptr %3, align 4, !tbaa !54
  %29 = getelementptr inbounds nuw %"struct.duckdb_zstd::ZSTD_cpuid_t", ptr %1, i32 0, i32 1
  store i32 %28, ptr %29, align 4, !tbaa !170
  %30 = load i32, ptr %4, align 4, !tbaa !54
  %31 = getelementptr inbounds nuw %"struct.duckdb_zstd::ZSTD_cpuid_t", ptr %1, i32 0, i32 2
  store i32 %30, ptr %31, align 4, !tbaa !171
  %32 = load i32, ptr %5, align 4, !tbaa !54
  %33 = getelementptr inbounds nuw %"struct.duckdb_zstd::ZSTD_cpuid_t", ptr %1, i32 0, i32 3
  store i32 %32, ptr %33, align 4, !tbaa !172
  call void @llvm.lifetime.end.p0(i64 4, ptr %6) #12
  call void @llvm.lifetime.end.p0(i64 4, ptr %5) #12
  call void @llvm.lifetime.end.p0(i64 4, ptr %4) #12
  call void @llvm.lifetime.end.p0(i64 4, ptr %3) #12
  call void @llvm.lifetime.end.p0(i64 4, ptr %2) #12
  %34 = load { i64, i64 }, ptr %1, align 4
  ret { i64, i64 } %34
}

; Function Attrs: mustprogress nounwind uwtable
define internal void @_ZN11duckdb_zstdL25ZSTD_DCtx_resetParametersEPNS_11ZSTD_DCtx_sE(ptr noundef %0) #2 {
  %2 = alloca ptr, align 8
  store ptr %0, ptr %2, align 8, !tbaa !3
  %3 = load ptr, ptr %2, align 8, !tbaa !3
  %4 = getelementptr inbounds nuw %"struct.duckdb_zstd::ZSTD_DCtx_s", ptr %3, i32 0, i32 20
  store i32 0, ptr %4, align 8, !tbaa !81
  %5 = load ptr, ptr %2, align 8, !tbaa !3
  %6 = getelementptr inbounds nuw %"struct.duckdb_zstd::ZSTD_DCtx_s", ptr %5, i32 0, i32 43
  store i64 134217729, ptr %6, align 8, !tbaa !132
  %7 = load ptr, ptr %2, align 8, !tbaa !3
  %8 = getelementptr inbounds nuw %"struct.duckdb_zstd::ZSTD_DCtx_s", ptr %7, i32 0, i32 51
  store i32 0, ptr %8, align 8, !tbaa !136
  %9 = load ptr, ptr %2, align 8, !tbaa !3
  %10 = getelementptr inbounds nuw %"struct.duckdb_zstd::ZSTD_DCtx_s", ptr %9, i32 0, i32 21
  store i32 0, ptr %10, align 4, !tbaa !99
  %11 = load ptr, ptr %2, align 8, !tbaa !3
  %12 = getelementptr inbounds nuw %"struct.duckdb_zstd::ZSTD_DCtx_s", ptr %11, i32 0, i32 36
  store i32 0, ptr %12, align 8, !tbaa !96
  %13 = load ptr, ptr %2, align 8, !tbaa !3
  %14 = getelementptr inbounds nuw %"struct.duckdb_zstd::ZSTD_DCtx_s", ptr %13, i32 0, i32 37
  store i32 0, ptr %14, align 4, !tbaa !137
  %15 = load ptr, ptr %2, align 8, !tbaa !3
  %16 = getelementptr inbounds nuw %"struct.duckdb_zstd::ZSTD_DCtx_s", ptr %15, i32 0, i32 38
  store i32 0, ptr %16, align 8, !tbaa !138
  ret void
}

; Function Attrs: inlinehint mustprogress uwtable
define internal noundef i32 @_ZN11duckdb_zstdL20ZSTD_cpuSupportsBmi2Ev() #5 {
  %1 = alloca %"struct.duckdb_zstd::ZSTD_cpuid_t", align 4
  %2 = alloca %"struct.duckdb_zstd::ZSTD_cpuid_t", align 4
  %3 = alloca %"struct.duckdb_zstd::ZSTD_cpuid_t", align 4
  call void @llvm.lifetime.start.p0(i64 16, ptr %1) #12
  %4 = call { i64, i64 } @_ZN11duckdb_zstdL10ZSTD_cpuidEv()
  %5 = getelementptr inbounds nuw { i64, i64 }, ptr %1, i32 0, i32 0
  %6 = extractvalue { i64, i64 } %4, 0
  store i64 %6, ptr %5, align 4
  %7 = getelementptr inbounds nuw { i64, i64 }, ptr %1, i32 0, i32 1
  %8 = extractvalue { i64, i64 } %4, 1
  store i64 %8, ptr %7, align 4
  call void @llvm.memcpy.p0.p0.i64(ptr align 4 %2, ptr align 4 %1, i64 16, i1 false), !tbaa.struct !164
  %9 = getelementptr inbounds nuw { i64, i64 }, ptr %2, i32 0, i32 0
  %10 = load i64, ptr %9, align 4
  %11 = getelementptr inbounds nuw { i64, i64 }, ptr %2, i32 0, i32 1
  %12 = load i64, ptr %11, align 4
  %13 = call noundef i32 @_ZN11duckdb_zstdL15ZSTD_cpuid_bmi1ENS_12ZSTD_cpuid_tE(i64 %10, i64 %12)
  %14 = icmp ne i32 %13, 0
  br i1 %14, label %15, label %22

15:                                               ; preds = %0
  call void @llvm.memcpy.p0.p0.i64(ptr align 4 %3, ptr align 4 %1, i64 16, i1 false), !tbaa.struct !164
  %16 = getelementptr inbounds nuw { i64, i64 }, ptr %3, i32 0, i32 0
  %17 = load i64, ptr %16, align 4
  %18 = getelementptr inbounds nuw { i64, i64 }, ptr %3, i32 0, i32 1
  %19 = load i64, ptr %18, align 4
  %20 = call noundef i32 @_ZN11duckdb_zstdL15ZSTD_cpuid_bmi2ENS_12ZSTD_cpuid_tE(i64 %17, i64 %19)
  %21 = icmp ne i32 %20, 0
  br label %22

22:                                               ; preds = %15, %0
  %23 = phi i1 [ false, %0 ], [ %21, %15 ]
  %24 = zext i1 %23 to i32
  call void @llvm.lifetime.end.p0(i64 16, ptr %1) #12
  ret i32 %24
}

; Function Attrs: mustprogress uwtable
define internal void @_ZN11duckdb_zstdL22ZSTD_initDCtx_internalEPNS_11ZSTD_DCtx_sE(ptr noundef %0) #0 {
  %2 = alloca ptr, align 8
  store ptr %0, ptr %2, align 8, !tbaa !3
  %3 = load ptr, ptr %2, align 8, !tbaa !3
  %4 = getelementptr inbounds nuw %"struct.duckdb_zstd::ZSTD_DCtx_s", ptr %3, i32 0, i32 27
  store i64 0, ptr %4, align 8, !tbaa !35
  %5 = load ptr, ptr %2, align 8, !tbaa !3
  %6 = getelementptr inbounds nuw %"struct.duckdb_zstd::ZSTD_DCtx_s", ptr %5, i32 0, i32 31
  store ptr null, ptr %6, align 8, !tbaa !37
  %7 = load ptr, ptr %2, align 8, !tbaa !3
  %8 = getelementptr inbounds nuw %"struct.duckdb_zstd::ZSTD_DCtx_s", ptr %7, i32 0, i32 30
  store ptr null, ptr %8, align 8, !tbaa !8
  %9 = load ptr, ptr %2, align 8, !tbaa !3
  %10 = getelementptr inbounds nuw %"struct.duckdb_zstd::ZSTD_DCtx_s", ptr %9, i32 0, i32 9
  store ptr null, ptr %10, align 8, !tbaa !38
  %11 = load ptr, ptr %2, align 8, !tbaa !3
  %12 = getelementptr inbounds nuw %"struct.duckdb_zstd::ZSTD_DCtx_s", ptr %11, i32 0, i32 33
  store i32 0, ptr %12, align 4, !tbaa !39
  %13 = load ptr, ptr %2, align 8, !tbaa !3
  %14 = getelementptr inbounds nuw %"struct.duckdb_zstd::ZSTD_DCtx_s", ptr %13, i32 0, i32 34
  store i32 0, ptr %14, align 8, !tbaa !40
  %15 = load ptr, ptr %2, align 8, !tbaa !3
  %16 = getelementptr inbounds nuw %"struct.duckdb_zstd::ZSTD_DCtx_s", ptr %15, i32 0, i32 40
  store ptr null, ptr %16, align 8, !tbaa !36
  %17 = load ptr, ptr %2, align 8, !tbaa !3
  %18 = getelementptr inbounds nuw %"struct.duckdb_zstd::ZSTD_DCtx_s", ptr %17, i32 0, i32 41
  store i64 0, ptr %18, align 8, !tbaa !31
  %19 = load ptr, ptr %2, align 8, !tbaa !3
  %20 = getelementptr inbounds nuw %"struct.duckdb_zstd::ZSTD_DCtx_s", ptr %19, i32 0, i32 45
  store i64 0, ptr %20, align 8, !tbaa !32
  %21 = load ptr, ptr %2, align 8, !tbaa !3
  %22 = getelementptr inbounds nuw %"struct.duckdb_zstd::ZSTD_DCtx_s", ptr %21, i32 0, i32 39
  store i32 0, ptr %22, align 4, !tbaa !41
  %23 = load ptr, ptr %2, align 8, !tbaa !3
  %24 = getelementptr inbounds nuw %"struct.duckdb_zstd::ZSTD_DCtx_s", ptr %23, i32 0, i32 50
  store i32 0, ptr %24, align 4, !tbaa !42
  %25 = load ptr, ptr %2, align 8, !tbaa !3
  %26 = getelementptr inbounds nuw %"struct.duckdb_zstd::ZSTD_DCtx_s", ptr %25, i32 0, i32 58
  store i64 0, ptr %26, align 8, !tbaa !43
  %27 = load ptr, ptr %2, align 8, !tbaa !3
  %28 = getelementptr inbounds nuw %"struct.duckdb_zstd::ZSTD_DCtx_s", ptr %27, i32 0, i32 28
  store i32 1, ptr %28, align 8, !tbaa !44
  %29 = call noundef i32 @_ZN11duckdb_zstdL20ZSTD_cpuSupportsBmi2Ev()
  %30 = load ptr, ptr %2, align 8, !tbaa !3
  %31 = getelementptr inbounds nuw %"struct.duckdb_zstd::ZSTD_DCtx_s", ptr %30, i32 0, i32 29
  store i32 %29, ptr %31, align 4, !tbaa !45
  %32 = load ptr, ptr %2, align 8, !tbaa !3
  %33 = getelementptr inbounds nuw %"struct.duckdb_zstd::ZSTD_DCtx_s", ptr %32, i32 0, i32 35
  store ptr null, ptr %33, align 8, !tbaa !46
  %34 = load ptr, ptr %2, align 8, !tbaa !3
  call void @_ZN11duckdb_zstdL25ZSTD_DCtx_resetParametersEPNS_11ZSTD_DCtx_sE(ptr noundef %34)
  ret void
}

; Function Attrs: mustprogress uwtable
define noundef ptr @_ZN11duckdb_zstd19ZSTD_initStaticDCtxEPvm(ptr noundef %0, i64 noundef %1) #0 {
  %3 = alloca ptr, align 8
  %4 = alloca ptr, align 8
  %5 = alloca i64, align 8
  %6 = alloca ptr, align 8
  %7 = alloca i32, align 4
  store ptr %0, ptr %4, align 8, !tbaa !33
  store i64 %1, ptr %5, align 8, !tbaa !34
  call void @llvm.lifetime.start.p0(i64 8, ptr %6) #12
  %8 = load ptr, ptr %4, align 8, !tbaa !33
  store ptr %8, ptr %6, align 8, !tbaa !3
  %9 = load ptr, ptr %4, align 8, !tbaa !33
  %10 = ptrtoint ptr %9 to i64
  %11 = and i64 %10, 7
  %12 = icmp ne i64 %11, 0
  br i1 %12, label %13, label %14

13:                                               ; preds = %2
  store ptr null, ptr %3, align 8
  store i32 1, ptr %7, align 4
  br label %28

14:                                               ; preds = %2
  %15 = load i64, ptr %5, align 8, !tbaa !34
  %16 = icmp ult i64 %15, 95976
  br i1 %16, label %17, label %18

17:                                               ; preds = %14
  store ptr null, ptr %3, align 8
  store i32 1, ptr %7, align 4
  br label %28

18:                                               ; preds = %14
  %19 = load ptr, ptr %6, align 8, !tbaa !3
  call void @_ZN11duckdb_zstdL22ZSTD_initDCtx_internalEPNS_11ZSTD_DCtx_sE(ptr noundef %19)
  %20 = load i64, ptr %5, align 8, !tbaa !34
  %21 = load ptr, ptr %6, align 8, !tbaa !3
  %22 = getelementptr inbounds nuw %"struct.duckdb_zstd::ZSTD_DCtx_s", ptr %21, i32 0, i32 27
  store i64 %20, ptr %22, align 8, !tbaa !35
  %23 = load ptr, ptr %6, align 8, !tbaa !3
  %24 = getelementptr inbounds %"struct.duckdb_zstd::ZSTD_DCtx_s", ptr %23, i64 1
  %25 = load ptr, ptr %6, align 8, !tbaa !3
  %26 = getelementptr inbounds nuw %"struct.duckdb_zstd::ZSTD_DCtx_s", ptr %25, i32 0, i32 40
  store ptr %24, ptr %26, align 8, !tbaa !36
  %27 = load ptr, ptr %6, align 8, !tbaa !3
  store ptr %27, ptr %3, align 8
  store i32 1, ptr %7, align 4
  br label %28

28:                                               ; preds = %18, %17, %13
  call void @llvm.lifetime.end.p0(i64 8, ptr %6) #12
  %29 = load ptr, ptr %3, align 8
  ret ptr %29
}