; Function Attrs: mustprogress memory(argmem: write) uwtable
define noundef ptr @_ZN11duckdb_zstd19ZSTD_initStaticDCtxEPvm(ptr noundef %0, i64 noundef %1) local_unnamed_addr #3 {
  %3 = ptrtoint ptr %0 to i64
  %4 = and i64 %3, 7
  %.not = icmp ne i64 %4, 0
  %5 = icmp ult i64 %1, 95976
  %or.cond = or i1 %5, %.not
  br i1 %or.cond, label %39, label %6

6:                                                ; preds = %2
  %7 = getelementptr inbounds nuw i8, ptr %0, i64 30168
  %8 = getelementptr inbounds nuw i8, ptr %0, i64 30184
  %9 = getelementptr inbounds nuw i8, ptr %0, i64 29912
  store ptr null, ptr %9, align 8, !tbaa !31
  %10 = getelementptr inbounds nuw i8, ptr %0, i64 30204
  store i32 0, ptr %10, align 4, !tbaa !32
  %11 = getelementptr inbounds nuw i8, ptr %0, i64 30208
  store i32 0, ptr %11, align 8, !tbaa !33
  %12 = getelementptr inbounds nuw i8, ptr %0, i64 30280
  store i64 0, ptr %12, align 8, !tbaa !30
  %13 = getelementptr inbounds nuw i8, ptr %0, i64 30236
  %14 = getelementptr inbounds nuw i8, ptr %0, i64 30316
  store i32 0, ptr %14, align 4, !tbaa !34
  %15 = getelementptr inbounds nuw i8, ptr %0, i64 95960
  store i64 0, ptr %15, align 8, !tbaa !35
  %16 = getelementptr inbounds nuw i8, ptr %0, i64 30176
  tail call void @llvm.memset.p0.i64(ptr noundef nonnull align 8 dereferenceable(16) %8, i8 0, i64 16, i1 false)
  tail call void @llvm.memset.p0.i64(ptr noundef nonnull align 4 dereferenceable(20) %13, i8 0, i64 20, i1 false)
  store i32 1, ptr %16, align 8, !tbaa !36
  %17 = tail call i32 asm "cpuid", "={ax},{ax},~{ebx},~{ecx},~{edx},~{dirflag},~{fpsr},~{flags}"(i32 0) #15, !srcloc !37
  %.not.i.i.i = icmp eq i32 %17, 0
  br i1 %.not.i.i.i, label %_ZN11duckdb_zstdL22ZSTD_initDCtx_internalEPNS_11ZSTD_DCtx_sE.exit, label %18

18:                                               ; preds = %6
  %19 = tail call { i32, i32, i32 } asm "cpuid", "={ax},={cx},={dx},{ax},~{ebx},~{dirflag},~{fpsr},~{flags}"(i32 1) #15, !srcloc !38
  %20 = icmp ugt i32 %17, 6
  br i1 %20, label %_ZN11duckdb_zstdL10ZSTD_cpuidEv.exit.i.i, label %_ZN11duckdb_zstdL22ZSTD_initDCtx_internalEPNS_11ZSTD_DCtx_sE.exit

_ZN11duckdb_zstdL10ZSTD_cpuidEv.exit.i.i:         ; preds = %18
  %21 = tail call { i32, i32, i32 } asm "cpuid", "={ax},={bx},={cx},{ax},{cx},~{edx},~{dirflag},~{fpsr},~{flags}"(i32 7, i32 0) #15, !srcloc !39
  %22 = extractvalue { i32, i32, i32 } %21, 1
  %23 = and i32 %22, 8
  %.not.i.i = icmp eq i32 %23, 0
  br i1 %.not.i.i, label %_ZN11duckdb_zstdL22ZSTD_initDCtx_internalEPNS_11ZSTD_DCtx_sE.exit, label %24

24:                                               ; preds = %_ZN11duckdb_zstdL10ZSTD_cpuidEv.exit.i.i
  %25 = lshr i32 %22, 8
  %26 = and i32 %25, 1
  br label %_ZN11duckdb_zstdL22ZSTD_initDCtx_internalEPNS_11ZSTD_DCtx_sE.exit

_ZN11duckdb_zstdL22ZSTD_initDCtx_internalEPNS_11ZSTD_DCtx_sE.exit: ; preds = %6, %18, %_ZN11duckdb_zstdL10ZSTD_cpuidEv.exit.i.i, %24
  %27 = phi i32 [ 0, %_ZN11duckdb_zstdL10ZSTD_cpuidEv.exit.i.i ], [ %26, %24 ], [ 0, %18 ], [ 0, %6 ]
  %28 = getelementptr inbounds nuw i8, ptr %0, i64 30180
  store i32 %27, ptr %28, align 4, !tbaa !40
  %29 = getelementptr inbounds nuw i8, ptr %0, i64 30216
  store ptr null, ptr %29, align 8, !tbaa !41
  %30 = getelementptr inbounds nuw i8, ptr %0, i64 30104
  store i32 0, ptr %30, align 8, !tbaa !42
  %31 = getelementptr inbounds nuw i8, ptr %0, i64 30264
  store i64 134217729, ptr %31, align 8, !tbaa !43
  %32 = getelementptr inbounds nuw i8, ptr %0, i64 30320
  store i32 0, ptr %32, align 8, !tbaa !44
  %33 = getelementptr inbounds nuw i8, ptr %0, i64 30108
  store i32 0, ptr %33, align 4, !tbaa !45
  %34 = getelementptr inbounds nuw i8, ptr %0, i64 30224
  store i32 0, ptr %34, align 8, !tbaa !46
  %35 = getelementptr inbounds nuw i8, ptr %0, i64 30228
  store i32 0, ptr %35, align 4, !tbaa !47
  %36 = getelementptr inbounds nuw i8, ptr %0, i64 30232
  store i32 0, ptr %36, align 8, !tbaa !48
  store i64 %1, ptr %7, align 8, !tbaa !49
  %37 = getelementptr inbounds nuw i8, ptr %0, i64 95976
  %38 = getelementptr inbounds nuw i8, ptr %0, i64 30240
  store ptr %37, ptr %38, align 8, !tbaa !50
  br label %39

39:                                               ; preds = %2, %_ZN11duckdb_zstdL22ZSTD_initDCtx_internalEPNS_11ZSTD_DCtx_sE.exit
  %.0 = phi ptr [ %0, %_ZN11duckdb_zstdL22ZSTD_initDCtx_internalEPNS_11ZSTD_DCtx_sE.exit ], [ null, %2 ]
  ret ptr %.0
}